(dp1
Vecho
p2
(dp3
VKarl Luu
p4
F1
sVElaine Zhang
p5
F1
sVDa Ming Xie
p6
F1
sVKa Yiu Tung
p7
F1
sVSharon Liu
p8
F1
sVTony Mak
p9
F3
sVVicktthorya Schmitt
p10
F4
ssValpha
p11
(dp12
VTang Chang
p13
F1
sVLing Chen
p14
F2
sV\u6797\u7acb
p15
F2
sVSilvia Feng
p16
F1
sV\u9648\u4f73\u9896
p17
F7
sVZoe Chuang
p18
F1
ssVdelta
p19
(dp20
VKarl Luu
p21
F3
sVVicktthorya Schmitt
p22
F1
sVSiyu Yang
p23
F1
ssVcharlie
p24
(dp25
VWing  Wong
p26
F1
sVVicktthorya Schmitt
p27
F1
sVChris Lazaris
p28
F1
sVKarl Luu
p29
F1
ssVbravo
p30
(dp31
VSiyu Yang
p32
F1
sVYulin Liu
p33
F1
sVRan Wei
p34
F1
ss.